///////////////////////////////////////////////////////////////////////////////
//                                                                            /
// IAR C/C++ Compiler V8.10.1.10194/W32 for 8051        23/Feb/2026  22:22:48 /
// Copyright 2004-2011 IAR Systems AB.                                        /
//                                                                            /
//    Core               =  plain                                             /
//    Code model         =  banked                                            /
//    Data model         =  large                                             /
//    Calling convention =  xdata reentrant                                   /
//    Constant location  =  data_rom                                          /
//    Dptr setup         =  1,16                                              /
//    Source file        =  E:\project\ZStack-CC2530-2.5.1a\Projects\zstack\S /
//                          amples\SampleApp_demo8_endvice2_bh1750\Source\mq2 /
//                          .c                                                /
//    Command line       =  -f E:\project\ZStack-CC2530-2.5.1a\Projects\zstac /
//                          k\Samples\SampleApp_demo8_endvice2_bh1750\CC2530D /
//                          B\..\..\..\Tools\CC2530DB\f8wEndev.cfg            /
//                          (-DCPU32MHZ -DROOT=__near_func                    /
//                          -DMAC_CFG_TX_DATA_MAX=3 -DMAC_CFG_TX_MAX=6        /
//                          -DMAC_CFG_RX_MAX=3) -f E:\project\ZStack-CC2530-2 /
//                          .5.1a\Projects\zstack\Samples\SampleApp_demo8_end /
//                          vice2_bh1750\CC2530DB\..\..\..\Tools\CC2530DB\f8w /
//                          Config.cfg (-DZIGBEEPRO -DSECURE=0                /
//                          -DZG_SECURE_DYNAMIC=0 -DREFLECTOR                 /
//                          -DDEFAULT_CHANLIST=0x00000800                     /
//                          -DZDAPP_CONFIG_PAN_ID=0xFFFF                      /
//                          -DNWK_START_DELAY=100 -DEXTENDED_JOINING_RANDOM_M /
//                          ASK=0x007F -DBEACON_REQUEST_DELAY=100             /
//                          -DBEACON_REQ_DELAY_MASK=0x00FF                    /
//                          -DLINK_STATUS_JITTER_MASK=0x007F                  /
//                          -DROUTE_EXPIRY_TIME=30 -DAPSC_ACK_WAIT_DURATION_P /
//                          OLLED=3000 -DNWK_INDIRECT_MSG_TIMEOUT=7           /
//                          -DMAX_RREQ_ENTRIES=8 -DAPSC_MAX_FRAME_RETRIES=3   /
//                          -DNWK_MAX_DATA_RETRIES=2                          /
//                          -DMAX_POLL_FAILURE_RETRIES=2 -DMAX_BCAST=9        /
//                          -DAPS_MAX_GROUPS=16 -DMAX_RTG_ENTRIES=40          /
//                          -DNWK_MAX_BINDING_ENTRIES=4                       /
//                          -DMAX_BINDING_CLUSTER_IDS=4                       /
//                          "-DDEFAULT_KEY={0x01, 0x03, 0x05, 0x07, 0x09,     /
//                          0x0B, 0x0D, 0x0F, 0x00, 0x02, 0x04, 0x06, 0x08,   /
//                          0x0A, 0x0C, 0x0D}" -DMAC_MAX_FRAME_SIZE=116       /
//                          -DZDNWKMGR_MIN_TRANSMISSIONS=20 "-DCONST=const    /
//                          __code" -DGENERIC=__generic                       /
//                          -DRFD_RCVC_ALWAYS_ON=FALSE -DPOLL_RATE=1000       /
//                          -DQUEUED_POLL_RATE=100 -DRESPONSE_POLL_RATE=100)  /
//                          -DREJOIN_POLL_RATE=440 E:\project\ZStack-CC2530-2 /
//                          .5.1a\Projects\zstack\Samples\SampleApp_demo8_end /
//                          vice2_bh1750\Source\mq2.c -D NWK_AUTO_POLL -D     /
//                          ZTOOL_P1 -D MT_TASK -D MT_SYS_FUNC -D             /
//                          MT_ZDO_FUNC -D LCD_SUPPORTED=DEBUG -lC            /
//                          E:\project\ZStack-CC2530-2.5.1a\Projects\zstack\S /
//                          amples\SampleApp_demo8_endvice2_bh1750\CC2530DB\E /
//                          ndDeviceEB\List\ -lA E:\project\ZStack-CC2530-2.5 /
//                          .1a\Projects\zstack\Samples\SampleApp_demo8_endvi /
//                          ce2_bh1750\CC2530DB\EndDeviceEB\List\             /
//                          --diag_suppress Pe001,Pa010 -o                    /
//                          E:\project\ZStack-CC2530-2.5.1a\Projects\zstack\S /
//                          amples\SampleApp_demo8_endvice2_bh1750\CC2530DB\E /
//                          ndDeviceEB\Obj\ -e --no_code_motion --debug       /
//                          --core=plain --dptr=16,1 --data_model=large       /
//                          --code_model=banked --calling_convention=xdata_re /
//                          entrant --place_constants=data_rom                /
//                          --nr_virtual_regs 16 -I                           /
//                          E:\project\ZStack-CC2530-2.5.1a\Projects\zstack\S /
//                          amples\SampleApp_demo8_endvice2_bh1750\CC2530DB\  /
//                          -I E:\project\ZStack-CC2530-2.5.1a\Projects\zstac /
//                          k\Samples\SampleApp_demo8_endvice2_bh1750\CC2530D /
//                          B\..\Source\ -I E:\project\ZStack-CC2530-2.5.1a\P /
//                          rojects\zstack\Samples\SampleApp_demo8_endvice2_b /
//                          h1750\CC2530DB\..\..\..\ZMain\TI2530DB\ -I        /
//                          E:\project\ZStack-CC2530-2.5.1a\Projects\zstack\S /
//                          amples\SampleApp_demo8_endvice2_bh1750\CC2530DB\. /
//                          .\..\..\..\..\Components\hal\include\ -I          /
//                          E:\project\ZStack-CC2530-2.5.1a\Projects\zstack\S /
//                          amples\SampleApp_demo8_endvice2_bh1750\CC2530DB\. /
//                          .\..\..\..\..\Components\hal\target\CC2530EB\ -I  /
//                          E:\project\ZStack-CC2530-2.5.1a\Projects\zstack\S /
//                          amples\SampleApp_demo8_endvice2_bh1750\CC2530DB\. /
//                          .\..\..\..\..\Components\mac\include\ -I          /
//                          E:\project\ZStack-CC2530-2.5.1a\Projects\zstack\S /
//                          amples\SampleApp_demo8_endvice2_bh1750\CC2530DB\. /
//                          .\..\..\..\..\Components\mac\high_level\ -I       /
//                          E:\project\ZStack-CC2530-2.5.1a\Projects\zstack\S /
//                          amples\SampleApp_demo8_endvice2_bh1750\CC2530DB\. /
//                          .\..\..\..\..\Components\mac\low_level\srf04\ -I  /
//                          E:\project\ZStack-CC2530-2.5.1a\Projects\zstack\S /
//                          amples\SampleApp_demo8_endvice2_bh1750\CC2530DB\. /
//                          .\..\..\..\..\Components\mac\low_level\srf04\sing /
//                          le_chip\ -I E:\project\ZStack-CC2530-2.5.1a\Proje /
//                          cts\zstack\Samples\SampleApp_demo8_endvice2_bh175 /
//                          0\CC2530DB\..\..\..\..\..\Components\mt\ -I       /
//                          E:\project\ZStack-CC2530-2.5.1a\Projects\zstack\S /
//                          amples\SampleApp_demo8_endvice2_bh1750\CC2530DB\. /
//                          .\..\..\..\..\Components\osal\include\ -I         /
//                          E:\project\ZStack-CC2530-2.5.1a\Projects\zstack\S /
//                          amples\SampleApp_demo8_endvice2_bh1750\CC2530DB\. /
//                          .\..\..\..\..\Components\services\saddr\ -I       /
//                          E:\project\ZStack-CC2530-2.5.1a\Projects\zstack\S /
//                          amples\SampleApp_demo8_endvice2_bh1750\CC2530DB\. /
//                          .\..\..\..\..\Components\services\sdata\ -I       /
//                          E:\project\ZStack-CC2530-2.5.1a\Projects\zstack\S /
//                          amples\SampleApp_demo8_endvice2_bh1750\CC2530DB\. /
//                          .\..\..\..\..\Components\stack\af\ -I             /
//                          E:\project\ZStack-CC2530-2.5.1a\Projects\zstack\S /
//                          amples\SampleApp_demo8_endvice2_bh1750\CC2530DB\. /
//                          .\..\..\..\..\Components\stack\nwk\ -I            /
//                          E:\project\ZStack-CC2530-2.5.1a\Projects\zstack\S /
//                          amples\SampleApp_demo8_endvice2_bh1750\CC2530DB\. /
//                          .\..\..\..\..\Components\stack\sapi\ -I           /
//                          E:\project\ZStack-CC2530-2.5.1a\Projects\zstack\S /
//                          amples\SampleApp_demo8_endvice2_bh1750\CC2530DB\. /
//                          .\..\..\..\..\Components\stack\sec\ -I            /
//                          E:\project\ZStack-CC2530-2.5.1a\Projects\zstack\S /
//                          amples\SampleApp_demo8_endvice2_bh1750\CC2530DB\. /
//                          .\..\..\..\..\Components\stack\sys\ -I            /
//                          E:\project\ZStack-CC2530-2.5.1a\Projects\zstack\S /
//                          amples\SampleApp_demo8_endvice2_bh1750\CC2530DB\. /
//                          .\..\..\..\..\Components\stack\zdo\ -I            /
//                          E:\project\ZStack-CC2530-2.5.1a\Projects\zstack\S /
//                          amples\SampleApp_demo8_endvice2_bh1750\CC2530DB\. /
//                          .\..\..\..\..\Components\zmac\ -I                 /
//                          E:\project\ZStack-CC2530-2.5.1a\Projects\zstack\S /
//                          amples\SampleApp_demo8_endvice2_bh1750\CC2530DB\. /
//                          .\..\..\..\..\Components\zmac\f8w\ -Ohz           /
//                          --require_prototypes                              /
//    List file          =  E:\project\ZStack-CC2530-2.5.1a\Projects\zstack\S /
//                          amples\SampleApp_demo8_endvice2_bh1750\CC2530DB\E /
//                          ndDeviceEB\List\mq2.s51                           /
//                                                                            /
//                                                                            /
///////////////////////////////////////////////////////////////////////////////

        NAME mq2

        RTMODEL "__SystemLibrary", "CLib"
        RTMODEL "__calling_convention", "xdata_reentrant"
        RTMODEL "__code_model", "banked"
        RTMODEL "__core", "plain"
        RTMODEL "__data_model", "large"
        RTMODEL "__dptr_size", "16"
        RTMODEL "__extended_stack", "disabled"
        RTMODEL "__location_for_constants", "data"
        RTMODEL "__number_of_dptrs", "1"
        RTMODEL "__rt_version", "1"

        RSEG DOVERLAY:DATA:NOROOT(0)
        RSEG IOVERLAY:IDATA:NOROOT(0)
        RSEG ISTACK:IDATA:NOROOT(0)
        RSEG PSTACK:XDATA:NOROOT(0)
        RSEG XSTACK:XDATA:NOROOT(0)

        EXTERN ?BANKED_ENTER_XDATA
        EXTERN ?BANKED_LEAVE_XDATA
        EXTERN ?BDISPATCH
        EXTERN ?BRET
        EXTERN ?FLT_MUL
        EXTERN ?FLT_TO_L
        EXTERN ?L_MOV_X
        EXTERN ?UL_TO_FLT
        EXTERN ?V0

        PUBLIC ??MQ2_GetAO?relay
        FUNCTION ??MQ2_GetAO?relay,0203H
        PUBLIC ??MQ2_GetDO?relay
        FUNCTION ??MQ2_GetDO?relay,0203H
        PUBLIC ??MQ2_Init?relay
        FUNCTION ??MQ2_Init?relay,0203H
        PUBLIC MQ2_GetAO
        FUNCTION MQ2_GetAO,021203H
        ARGFRAME XSTACK, 0, STACK
        LOCFRAME XSTACK, 16, STACK
        PUBLIC MQ2_GetDO
        FUNCTION MQ2_GetDO,0203H
        ARGFRAME XSTACK, 0, STACK
        PUBLIC MQ2_Init
        FUNCTION MQ2_Init,0203H
        ARGFRAME XSTACK, 0, STACK
        PUBWEAK P1DIR
        PUBWEAK P1SEL
        PUBWEAK _A_P1
        PUBWEAK __Constant_39000000
        PUBWEAK __Constant_42c80000
        
        CFI Names cfiNames0
        CFI StackFrame CFA_SP SP IDATA
        CFI StackFrame CFA_PSP16 PSP16 XDATA
        CFI StackFrame CFA_XSP16 XSP16 XDATA
        CFI StaticOverlayFrame CFA_IOVERLAY IOVERLAY
        CFI StaticOverlayFrame CFA_DOVERLAY DOVERLAY
        CFI Resource `PSW.CY`:1, `B.BR0`:1, `B.BR1`:1, `B.BR2`:1, `B.BR3`:1
        CFI Resource `B.BR4`:1, `B.BR5`:1, `B.BR6`:1, `B.BR7`:1, `VB.BR8`:1
        CFI Resource `VB.BR9`:1, `VB.BR10`:1, `VB.BR11`:1, `VB.BR12`:1
        CFI Resource `VB.BR13`:1, `VB.BR14`:1, `VB.BR15`:1, VB:8, B:8, A:8
        CFI Resource PSW:8, DPL0:8, DPH0:8, R0:8, R1:8, R2:8, R3:8, R4:8, R5:8
        CFI Resource R6:8, R7:8, V0:8, V1:8, V2:8, V3:8, V4:8, V5:8, V6:8, V7:8
        CFI Resource V8:8, V9:8, V10:8, V11:8, V12:8, V13:8, V14:8, V15:8, SP:8
        CFI Resource PSPH:8, PSPL:8, PSP16:16, XSPH:8, XSPL:8, XSP16:16
        CFI VirtualResource ?RET:24
        CFI Resource ?BRET_EXT:8
        CFI VirtualResource ?RET_HIGH:8, ?RET_LOW:8
        CFI ResourceParts PSP16 PSPH, PSPL
        CFI ResourceParts XSP16 XSPH, XSPL
        CFI ResourceParts ?RET ?BRET_EXT, ?RET_HIGH, ?RET_LOW
        CFI EndNames cfiNames0
        
        CFI Common cfiCommon0 Using cfiNames0
        CFI CodeAlign 1
        CFI DataAlign -1
        CFI ReturnAddress ?RET CODE
        CFI CFA_DOVERLAY Used
        CFI CFA_IOVERLAY Used
        CFI CFA_SP SP+-3
        CFI CFA_PSP16 PSP16+0
        CFI CFA_XSP16 XSP16+0
        CFI `PSW.CY` SameValue
        CFI `B.BR0` SameValue
        CFI `B.BR1` SameValue
        CFI `B.BR2` SameValue
        CFI `B.BR3` SameValue
        CFI `B.BR4` SameValue
        CFI `B.BR5` SameValue
        CFI `B.BR6` SameValue
        CFI `B.BR7` SameValue
        CFI `VB.BR8` SameValue
        CFI `VB.BR9` SameValue
        CFI `VB.BR10` SameValue
        CFI `VB.BR11` SameValue
        CFI `VB.BR12` SameValue
        CFI `VB.BR13` SameValue
        CFI `VB.BR14` SameValue
        CFI `VB.BR15` SameValue
        CFI VB SameValue
        CFI B Undefined
        CFI A Undefined
        CFI PSW SameValue
        CFI DPL0 SameValue
        CFI DPH0 SameValue
        CFI R0 Undefined
        CFI R1 Undefined
        CFI R2 Undefined
        CFI R3 Undefined
        CFI R4 Undefined
        CFI R5 Undefined
        CFI R6 SameValue
        CFI R7 SameValue
        CFI V0 SameValue
        CFI V1 SameValue
        CFI V2 SameValue
        CFI V3 SameValue
        CFI V4 SameValue
        CFI V5 SameValue
        CFI V6 SameValue
        CFI V7 SameValue
        CFI V8 SameValue
        CFI V9 SameValue
        CFI V10 SameValue
        CFI V11 SameValue
        CFI V12 SameValue
        CFI V13 SameValue
        CFI V14 SameValue
        CFI V15 SameValue
        CFI PSPH Undefined
        CFI PSPL Undefined
        CFI XSPH Undefined
        CFI XSPL Undefined
        CFI ?RET Concat
        CFI ?BRET_EXT Frame(CFA_SP, 3)
        CFI ?RET_HIGH Frame(CFA_SP, 2)
        CFI ?RET_LOW Frame(CFA_SP, 1)
        CFI EndCommon cfiCommon0
        
HalAdcRead          SYMBOL "HalAdcRead"
??HalAdcRead?relay  SYMBOL "?relay", HalAdcRead
MQ2_GetAO           SYMBOL "MQ2_GetAO"
??MQ2_GetAO?relay   SYMBOL "?relay", MQ2_GetAO
MQ2_GetDO           SYMBOL "MQ2_GetDO"
??MQ2_GetDO?relay   SYMBOL "?relay", MQ2_GetDO
MQ2_Init            SYMBOL "MQ2_Init"
??MQ2_Init?relay    SYMBOL "?relay", MQ2_Init

        EXTERN HalAdcRead
        FUNCTION HalAdcRead,0202H
        ARGFRAME ISTACK, 0, STACK
        ARGFRAME PSTACK, 0, STACK
        ARGFRAME XSTACK, 16, STACK
        ARGFRAME IOVERLAY, 0, STATIC
        ARGFRAME DOVERLAY, 0, STATIC
        EXTERN ??HalAdcRead?relay
        FUNCTION ??HalAdcRead?relay,00H

// E:\project\ZStack-CC2530-2.5.1a\Projects\zstack\Samples\SampleApp_demo8_endvice2_bh1750\Source\mq2.c
//    1 #include "mq2.h"
//    2 #include "ioCC2530.h"

        ASEGN SFR_AN:DATA:NOROOT,090H
// union <unnamed> volatile __sfr _A_P1
_A_P1:
        DATA8
        DS 1

        ASEGN SFR_AN:DATA:NOROOT,0f4H
// unsigned char volatile __sfr P1SEL
P1SEL:
        DATA8
        DS 1

        ASEGN SFR_AN:DATA:NOROOT,0feH
// unsigned char volatile __sfr P1DIR
P1DIR:
        DATA8
        DS 1
//    3 #include "hal_adc.h"
//    4 
//    5 /*
//    6 硬件连接假设：
//    7 DO  → P1.5
//    8 AO  → ADC6
//    9 */
//   10 

        RSEG BANKED_CODE:CODE:NOROOT(0)
//   11 void MQ2_Init(void)
MQ2_Init:
        CFI Block cfiBlock0 Using cfiCommon0
        CFI Function MQ2_Init
        CODE
//   12 {
        ; Saved register size: 0
        ; Auto size: 0
//   13     // 设置 P1.5 为普通IO输入（DO）
//   14     P1SEL &= ~0x20;     // 清除功能选择
        ANL     0xf4,#0xdf
//   15     P1DIR &= ~0x20;     // 设置为输入
        ANL     0xfe,#0xdf
//   16 }
        LJMP    ?BRET
        CFI EndBlock cfiBlock0
        REQUIRE P1SEL
        REQUIRE P1DIR
//   17 

        RSEG BANKED_CODE:CODE:NOROOT(0)
//   18 uint8 MQ2_GetDO(void)
MQ2_GetDO:
        CFI Block cfiBlock1 Using cfiCommon0
        CFI Function MQ2_GetDO
        CODE
//   19 {
        ; Saved register size: 0
        ; Auto size: 0
//   20     // 高电平=未检测到
//   21     // 低电平=检测到
//   22 
//   23     return (P1_5 > 0) ? 0 : 1;
        MOV     C,0x90.5
        JNC     ??MQ2_GetDO_0
        MOV     R1,#0x0
        SJMP    ??MQ2_GetDO_1
??MQ2_GetDO_0:
        MOV     R1,#0x1
??MQ2_GetDO_1:
        LJMP    ?BRET
        CFI EndBlock cfiBlock1
        REQUIRE _A_P1
//   24 }
//   25 

        RSEG BANKED_CODE:CODE:NOROOT(0)
//   26 uint8 MQ2_GetAO(void)
MQ2_GetAO:
        CFI Block cfiBlock2 Using cfiCommon0
        CFI Function MQ2_GetAO
        CODE
//   27 {
        FUNCALL MQ2_GetAO, HalAdcRead
        LOCFRAME ISTACK, 0, STACK
        LOCFRAME PSTACK, 0, STACK
        LOCFRAME XSTACK, 16, STACK
        LOCFRAME IOVERLAY, 0, STATIC
        LOCFRAME DOVERLAY, 0, STATIC
        ARGFRAME ISTACK, 0, STACK
        ARGFRAME PSTACK, 0, STACK
        ARGFRAME XSTACK, 16, STACK
        ARGFRAME IOVERLAY, 0, STATIC
        ARGFRAME DOVERLAY, 0, STATIC
        MOV     A,#-0x10
        LCALL   ?BANKED_ENTER_XDATA
        CFI DPH0 load(1, XDATA, add(CFA_XSP16, literal(-1)))
        CFI DPL0 load(1, XDATA, add(CFA_XSP16, literal(-2)))
        CFI ?BRET_EXT load(1, XDATA, add(CFA_XSP16, literal(-3)))
        CFI ?RET_HIGH load(1, XDATA, add(CFA_XSP16, literal(-4)))
        CFI ?RET_LOW load(1, XDATA, add(CFA_XSP16, literal(-5)))
        CFI R7 load(1, XDATA, add(CFA_XSP16, literal(-6)))
        CFI V7 load(1, XDATA, add(CFA_XSP16, literal(-7)))
        CFI V6 load(1, XDATA, add(CFA_XSP16, literal(-8)))
        CFI V5 load(1, XDATA, add(CFA_XSP16, literal(-9)))
        CFI V4 load(1, XDATA, add(CFA_XSP16, literal(-10)))
        CFI V3 load(1, XDATA, add(CFA_XSP16, literal(-11)))
        CFI V2 load(1, XDATA, add(CFA_XSP16, literal(-12)))
        CFI V1 load(1, XDATA, add(CFA_XSP16, literal(-13)))
        CFI V0 load(1, XDATA, add(CFA_XSP16, literal(-14)))
        CFI VB load(1, XDATA, add(CFA_XSP16, literal(-15)))
        CFI R6 load(1, XDATA, add(CFA_XSP16, literal(-16)))
        CFI CFA_SP SP+0
        CFI CFA_XSP16 add(XSP16, 16)
        ; Saved register size: 16
        ; Auto size: 0
//   28     uint16 adc = 0;
//   29     float percent = 0;
//   30 
//   31     adc = HalAdcRead(HAL_ADC_CHANNEL_6, HAL_ADC_RESOLUTION_14);
        ; Setup parameters for call to function HalAdcRead
        MOV     R2,#0x4
        MOV     R1,#0x6
        LCALL   ??HalAdcRead?relay
        MOV     ?V0 + 0,R2
        MOV     ?V0 + 1,R3
//   32 
//   33     if(adc >= 8192)
        CLR     C
        MOV     A,R3
        SUBB    A,#0x20
        JC      ??MQ2_GetAO_0
//   34         return 0;
        MOV     R1,#0x0
        SJMP    ??MQ2_GetAO_1
//   35 
//   36     percent = ((float)adc / 8192.0f) * 100.0f;
//   37 
//   38     return (uint8)percent;
??MQ2_GetAO_0:
        CLR     A
        MOV     ?V0 + 2,A
        MOV     ?V0 + 3,A
        MOV     R0,#?V0 + 0
        LCALL   ?UL_TO_FLT
        MOV     DPTR,#__Constant_39000000
        MOV     R0,#?V0 + 4
        LCALL   ?L_MOV_X
        MOV     R0,#?V0 + 0
        MOV     R1,#?V0 + 4
        LCALL   ?FLT_MUL
        MOV     DPTR,#__Constant_42c80000
        MOV     R0,#?V0 + 4
        LCALL   ?L_MOV_X
        MOV     R0,#?V0 + 0
        MOV     R1,#?V0 + 4
        LCALL   ?FLT_MUL
        MOV     R0,#?V0 + 0
        LCALL   ?FLT_TO_L
        MOV     R1,?V0 + 0
??MQ2_GetAO_1:
        MOV     R7,#0x8
        LJMP    ?BANKED_LEAVE_XDATA
        CFI EndBlock cfiBlock2
//   39 }

        RSEG XDATA_ROM_C:CONST:REORDER:NOROOT(0)
        DATA32
__Constant_39000000:
        DD 39000000H

        RSEG XDATA_ROM_C:CONST:REORDER:NOROOT(0)
        DATA32
__Constant_42c80000:
        DD 42C80000H

        RSEG BANK_RELAYS:CODE:REORDER:NOROOT(0)
??MQ2_Init?relay:
        LCALL   ?BDISPATCH
        DATA
        DC24    MQ2_Init

        RSEG BANK_RELAYS:CODE:REORDER:NOROOT(0)
??MQ2_GetDO?relay:
        LCALL   ?BDISPATCH
        DATA
        DC24    MQ2_GetDO

        RSEG BANK_RELAYS:CODE:REORDER:NOROOT(0)
??MQ2_GetAO?relay:
        LCALL   ?BDISPATCH
        DATA
        DC24    MQ2_GetAO

        END
// 
// 100 bytes in segment BANKED_CODE
//  18 bytes in segment BANK_RELAYS
//   3 bytes in segment SFR_AN
//   8 bytes in segment XDATA_ROM_C
// 
// 118 bytes of CODE  memory
//   0 bytes of CONST memory (+ 8 bytes shared)
//   0 bytes of DATA  memory (+ 3 bytes shared)
//
//Errors: none
//Warnings: none
