///////////////////////////////////////////////////////////////////////////////
//                                                                            /
// IAR C/C++ Compiler V8.10.1.10194/W32 for 8051        25/Feb/2026  19:11:36 /
// Copyright 2004-2011 IAR Systems AB.                                        /
//                                                                            /
//    Core               =  plain                                             /
//    Code model         =  banked                                            /
//    Data model         =  large                                             /
//    Calling convention =  xdata reentrant                                   /
//    Constant location  =  data_rom                                          /
//    Dptr setup         =  1,16                                              /
//    Source file        =  E:\project\ZStack-CC2530-2.5.1a\Projects\zstack\S /
//                          amples\12-1-Ļ‚’’lLED”ŇĽĮ≤‚ ‘\Source\SampleApp.c   /
//    Command line       =  -f E:\project\ZStack-CC2530-2.5.1a\Projects\zstac /
//                          k\Samples\12-1-Ļ‚’’lLED”ŇĽĮ≤‚ ‘\CC2530DB\..\..\.. /
//                          \Tools\CC2530DB\f8wEndev.cfg (-DCPU32MHZ          /
//                          -DROOT=__near_func -DMAC_CFG_TX_DATA_MAX=3        /
//                          -DMAC_CFG_TX_MAX=6 -DMAC_CFG_RX_MAX=3) -f         /
//                          E:\project\ZStack-CC2530-2.5.1a\Projects\zstack\S /
//                          amples\12-1-Ļ‚’’lLED”ŇĽĮ≤‚ ‘\CC2530DB\..\..\..\To /
//                          ols\CC2530DB\f8wConfig.cfg (-DZIGBEEPRO           /
//                          -DSECURE=0 -DZG_SECURE_DYNAMIC=0 -DREFLECTOR      /
//                          -DDEFAULT_CHANLIST=0x00000800                     /
//                          -DZDAPP_CONFIG_PAN_ID=0xFFFF                      /
//                          -DNWK_START_DELAY=100 -DEXTENDED_JOINING_RANDOM_M /
//                          ASK=0x007F -DBEACON_REQUEST_DELAY=100             /
//                          -DBEACON_REQ_DELAY_MASK=0x00FF                    /
//                          -DLINK_STATUS_JITTER_MASK=0x007F                  /
//                          -DROUTE_EXPIRY_TIME=30 -DAPSC_ACK_WAIT_DURATION_P /
//                          OLLED=3000 -DNWK_INDIRECT_MSG_TIMEOUT=7           /
//                          -DMAX_RREQ_ENTRIES=8 -DAPSC_MAX_FRAME_RETRIES=3   /
//                          -DNWK_MAX_DATA_RETRIES=2                          /
//                          -DMAX_POLL_FAILURE_RETRIES=2 -DMAX_BCAST=9        /
//                          -DAPS_MAX_GROUPS=16 -DMAX_RTG_ENTRIES=40          /
//                          -DNWK_MAX_BINDING_ENTRIES=4                       /
//                          -DMAX_BINDING_CLUSTER_IDS=4                       /
//                          "-DDEFAULT_KEY={0x01, 0x03, 0x05, 0x07, 0x09,     /
//                          0x0B, 0x0D, 0x0F, 0x00, 0x02, 0x04, 0x06, 0x08,   /
//                          0x0A, 0x0C, 0x0D}" -DMAC_MAX_FRAME_SIZE=116       /
//                          -DZDNWKMGR_MIN_TRANSMISSIONS=20 "-DCONST=const    /
//                          __code" -DGENERIC=__generic                       /
//                          -DRFD_RCVC_ALWAYS_ON=FALSE -DPOLL_RATE=1000       /
//                          -DQUEUED_POLL_RATE=100 -DRESPONSE_POLL_RATE=100)  /
//                          -DREJOIN_POLL_RATE=440 E:\project\ZStack-CC2530-2 /
//                          .5.1a\Projects\zstack\Samples\12-1-Ļ‚’’lLED”ŇĽĮ≤‚ /
//                           ‘\Source\SampleApp.c -D NWK_AUTO_POLL -D         /
//                          ZTOOL_P1 -D MT_TASK -D MT_SYS_FUNC -D             /
//                          MT_ZDO_FUNC -D LCD_SUPPORTED=DEBUG -lC            /
//                          E:\project\ZStack-CC2530-2.5.1a\Projects\zstack\S /
//                          amples\12-1-Ļ‚’’lLED”ŇĽĮ≤‚ ‘\CC2530DB\EndDeviceEB /
//                          \List\ -lA E:\project\ZStack-CC2530-2.5.1a\Projec /
//                          ts\zstack\Samples\12-1-Ļ‚’’lLED”ŇĽĮ≤‚ ‘\CC2530DB\ /
//                          EndDeviceEB\List\ --diag_suppress Pe001,Pa010 -o  /
//                          E:\project\ZStack-CC2530-2.5.1a\Projects\zstack\S /
//                          amples\12-1-Ļ‚’’lLED”ŇĽĮ≤‚ ‘\CC2530DB\EndDeviceEB /
//                          \Obj\ -e --no_code_motion --debug --core=plain    /
//                          --dptr=16,1 --data_model=large                    /
//                          --code_model=banked --calling_convention=xdata_re /
//                          entrant --place_constants=data_rom                /
//                          --nr_virtual_regs 16 -I                           /
//                          E:\project\ZStack-CC2530-2.5.1a\Projects\zstack\S /
//                          amples\12-1-Ļ‚’’lLED”ŇĽĮ≤‚ ‘\CC2530DB\ -I         /
//                          E:\project\ZStack-CC2530-2.5.1a\Projects\zstack\S /
//                          amples\12-1-Ļ‚’’lLED”ŇĽĮ≤‚ ‘\CC2530DB\..\Source\  /
//                          -I E:\project\ZStack-CC2530-2.5.1a\Projects\zstac /
//                          k\Samples\12-1-Ļ‚’’lLED”ŇĽĮ≤‚ ‘\CC2530DB\..\..\.. /
//                          \ZMain\TI2530DB\ -I E:\project\ZStack-CC2530-2.5. /
//                          1a\Projects\zstack\Samples\12-1-Ļ‚’’lLED”ŇĽĮ≤‚ ‘\ /
//                          CC2530DB\..\..\..\..\..\Components\hal\include\   /
//                          -I E:\project\ZStack-CC2530-2.5.1a\Projects\zstac /
//                          k\Samples\12-1-Ļ‚’’lLED”ŇĽĮ≤‚ ‘\CC2530DB\..\..\.. /
//                          \..\..\Components\hal\target\CC2530EB\ -I         /
//                          E:\project\ZStack-CC2530-2.5.1a\Projects\zstack\S /
//                          amples\12-1-Ļ‚’’lLED”ŇĽĮ≤‚ ‘\CC2530DB\..\..\..\.. /
//                          \..\Components\mac\include\ -I                    /
//                          E:\project\ZStack-CC2530-2.5.1a\Projects\zstack\S /
//                          amples\12-1-Ļ‚’’lLED”ŇĽĮ≤‚ ‘\CC2530DB\..\..\..\.. /
//                          \..\Components\mac\high_level\ -I                 /
//                          E:\project\ZStack-CC2530-2.5.1a\Projects\zstack\S /
//                          amples\12-1-Ļ‚’’lLED”ŇĽĮ≤‚ ‘\CC2530DB\..\..\..\.. /
//                          \..\Components\mac\low_level\srf04\ -I            /
//                          E:\project\ZStack-CC2530-2.5.1a\Projects\zstack\S /
//                          amples\12-1-Ļ‚’’lLED”ŇĽĮ≤‚ ‘\CC2530DB\..\..\..\.. /
//                          \..\Components\mac\low_level\srf04\single_chip\   /
//                          -I E:\project\ZStack-CC2530-2.5.1a\Projects\zstac /
//                          k\Samples\12-1-Ļ‚’’lLED”ŇĽĮ≤‚ ‘\CC2530DB\..\..\.. /
//                          \..\..\Components\mt\ -I                          /
//                          E:\project\ZStack-CC2530-2.5.1a\Projects\zstack\S /
//                          amples\12-1-Ļ‚’’lLED”ŇĽĮ≤‚ ‘\CC2530DB\..\..\..\.. /
//                          \..\Components\osal\include\ -I                   /
//                          E:\project\ZStack-CC2530-2.5.1a\Projects\zstack\S /
//                          amples\12-1-Ļ‚’’lLED”ŇĽĮ≤‚ ‘\CC2530DB\..\..\..\.. /
//                          \..\Components\services\saddr\ -I                 /
//                          E:\project\ZStack-CC2530-2.5.1a\Projects\zstack\S /
//                          amples\12-1-Ļ‚’’lLED”ŇĽĮ≤‚ ‘\CC2530DB\..\..\..\.. /
//                          \..\Components\services\sdata\ -I                 /
//                          E:\project\ZStack-CC2530-2.5.1a\Projects\zstack\S /
//                          amples\12-1-Ļ‚’’lLED”ŇĽĮ≤‚ ‘\CC2530DB\..\..\..\.. /
//                          \..\Components\stack\af\ -I                       /
//                          E:\project\ZStack-CC2530-2.5.1a\Projects\zstack\S /
//                          amples\12-1-Ļ‚’’lLED”ŇĽĮ≤‚ ‘\CC2530DB\..\..\..\.. /
//                          \..\Components\stack\nwk\ -I                      /
//                          E:\project\ZStack-CC2530-2.5.1a\Projects\zstack\S /
//                          amples\12-1-Ļ‚’’lLED”ŇĽĮ≤‚ ‘\CC2530DB\..\..\..\.. /
//                          \..\Components\stack\sapi\ -I                     /
//                          E:\project\ZStack-CC2530-2.5.1a\Projects\zstack\S /
//                          amples\12-1-Ļ‚’’lLED”ŇĽĮ≤‚ ‘\CC2530DB\..\..\..\.. /
//                          \..\Components\stack\sec\ -I                      /
//                          E:\project\ZStack-CC2530-2.5.1a\Projects\zstack\S /
//                          amples\12-1-Ļ‚’’lLED”ŇĽĮ≤‚ ‘\CC2530DB\..\..\..\.. /
//                          \..\Components\stack\sys\ -I                      /
//                          E:\project\ZStack-CC2530-2.5.1a\Projects\zstack\S /
//                          amples\12-1-Ļ‚’’lLED”ŇĽĮ≤‚ ‘\CC2530DB\..\..\..\.. /
//                          \..\Components\stack\zdo\ -I                      /
//                          E:\project\ZStack-CC2530-2.5.1a\Projects\zstack\S /
//                          amples\12-1-Ļ‚’’lLED”ŇĽĮ≤‚ ‘\CC2530DB\..\..\..\.. /
//                          \..\Components\zmac\ -I                           /
//                          E:\project\ZStack-CC2530-2.5.1a\Projects\zstack\S /
//                          amples\12-1-Ļ‚’’lLED”ŇĽĮ≤‚ ‘\CC2530DB\..\..\..\.. /
//                          \..\Components\zmac\f8w\ -Ohz                     /
//                          --require_prototypes                              /
//    List file          =  E:\project\ZStack-CC2530-2.5.1a\Projects\zstack\S /
//                          amples\12-1-Ļ‚’’lLED”ŇĽĮ≤‚ ‘\CC2530DB\EndDeviceEB /
//                          \List\SampleApp.s51                               /
//                                                                            /
//                                                                            /
///////////////////////////////////////////////////////////////////////////////

        NAME SampleApp

        RTMODEL "__SystemLibrary", "CLib"
        RTMODEL "__calling_convention", "xdata_reentrant"
        RTMODEL "__code_model", "banked"
        RTMODEL "__core", "plain"
        RTMODEL "__data_model", "large"
        RTMODEL "__dptr_size", "16"
        RTMODEL "__extended_stack", "disabled"
        RTMODEL "__location_for_constants", "data"
        RTMODEL "__number_of_dptrs", "1"
        RTMODEL "__rt_version", "1"

        RSEG DOVERLAY:DATA:NOROOT(0)
        RSEG IOVERLAY:IDATA:NOROOT(0)
        RSEG ISTACK:IDATA:NOROOT(0)
        RSEG PSTACK:XDATA:NOROOT(0)
        RSEG XSTACK:XDATA:NOROOT(0)

        EXTERN ?BANKED_ENTER_XDATA
        EXTERN ?BANKED_LEAVE_XDATA
        EXTERN ?BDISPATCH
        EXTERN ?DEALLOC_XSTACK8
        EXTERN ?PUSH_XSTACK_I_ONE
        EXTERN ?PUSH_XSTACK_I_TWO
        EXTERN ?V0
        EXTERN __INIT_XDATA_Z

        PUBLIC ??SampleApp_Init?relay
        FUNCTION ??SampleApp_Init?relay,0203H
        PUBLIC ??SampleApp_MessageMSGCB?relay
        FUNCTION ??SampleApp_MessageMSGCB?relay,0203H
        PUBLIC ??SampleApp_ProcessEvent?relay
        FUNCTION ??SampleApp_ProcessEvent?relay,0203H
        PUBLIC SampleAppFlashCounter
        PUBLIC SampleAppPeriodicCounter
        PUBLIC SampleApp_ClusterList
        PUBLIC SampleApp_Flash_DstAddr
        PUBLIC SampleApp_Group
        PUBLIC SampleApp_Init
        FUNCTION SampleApp_Init,021203H
        ARGFRAME XSTACK, 0, STACK
        LOCFRAME XSTACK, 9, STACK
        PUBLIC SampleApp_MessageMSGCB
        FUNCTION SampleApp_MessageMSGCB,021203H
        ARGFRAME XSTACK, 12, STACK
        ARGFRAME IOVERLAY, 0, STATIC
        ARGFRAME DOVERLAY, 0, STATIC
        LOCFRAME XSTACK, 10, STACK
        PUBLIC SampleApp_NwkState
        PUBLIC SampleApp_Periodic_DstAddr
        PUBLIC SampleApp_ProcessEvent
        FUNCTION SampleApp_ProcessEvent,021203H
        ARGFRAME XSTACK, 0, STACK
        LOCFRAME XSTACK, 21, STACK
        PUBLIC SampleApp_SimpleDesc
        PUBLIC SampleApp_TaskID
        PUBLIC SampleApp_TransID
        PUBLIC SampleApp_epDesc
        
        CFI Names cfiNames0
        CFI StackFrame CFA_SP SP IDATA
        CFI StackFrame CFA_PSP16 PSP16 XDATA
        CFI StackFrame CFA_XSP16 XSP16 XDATA
        CFI StaticOverlayFrame CFA_IOVERLAY IOVERLAY
        CFI StaticOverlayFrame CFA_DOVERLAY DOVERLAY
        CFI Resource `PSW.CY`:1, `B.BR0`:1, `B.BR1`:1, `B.BR2`:1, `B.BR3`:1
        CFI Resource `B.BR4`:1, `B.BR5`:1, `B.BR6`:1, `B.BR7`:1, `VB.BR8`:1
        CFI Resource `VB.BR9`:1, `VB.BR10`:1, `VB.BR11`:1, `VB.BR12`:1
        CFI Resource `VB.BR13`:1, `VB.BR14`:1, `VB.BR15`:1, VB:8, B:8, A:8
        CFI Resource PSW:8, DPL0:8, DPH0:8, R0:8, R1:8, R2:8, R3:8, R4:8, R5:8
        CFI Resource R6:8, R7:8, V0:8, V1:8, V2:8, V3:8, V4:8, V5:8, V6:8, V7:8
        CFI Resource V8:8, V9:8, V10:8, V11:8, V12:8, V13:8, V14:8, V15:8, SP:8
        CFI Resource PSPH:8, PSPL:8, PSP16:16, XSPH:8, XSPL:8, XSP16:16
        CFI VirtualResource ?RET:24
        CFI Resource ?BRET_EXT:8
        CFI VirtualResource ?RET_HIGH:8, ?RET_LOW:8
        CFI ResourceParts PSP16 PSPH, PSPL
        CFI ResourceParts XSP16 XSPH, XSPL
        CFI ResourceParts ?RET ?BRET_EXT, ?RET_HIGH, ?RET_LOW
        CFI EndNames cfiNames0
        
        CFI Common cfiCommon0 Using cfiNames0
        CFI CodeAlign 1
        CFI DataAlign -1
        CFI ReturnAddress ?RET CODE
        CFI CFA_DOVERLAY Used
        CFI CFA_IOVERLAY Used
        CFI CFA_SP SP+-3
        CFI CFA_PSP16 PSP16+0
        CFI CFA_XSP16 XSP16+0
        CFI `PSW.CY` SameValue
        CFI `B.BR0` SameValue
        CFI `B.BR1` SameValue
        CFI `B.BR2` SameValue
        CFI `B.BR3` SameValue
        CFI `B.BR4` SameValue
        CFI `B.BR5` SameValue
        CFI `B.BR6` SameValue
        CFI `B.BR7` SameValue
        CFI `VB.BR8` SameValue
        CFI `VB.BR9` SameValue
        CFI `VB.BR10` SameValue
        CFI `VB.BR11` SameValue
        CFI `VB.BR12` SameValue
        CFI `VB.BR13` SameValue
        CFI `VB.BR14` SameValue
        CFI `VB.BR15` SameValue
        CFI VB SameValue
        CFI B Undefined
        CFI A Undefined
        CFI PSW SameValue
        CFI DPL0 SameValue
        CFI DPH0 SameValue
        CFI R0 Undefined
        CFI R1 Undefined
        CFI R2 Undefined
        CFI R3 Undefined
        CFI R4 Undefined
        CFI R5 Undefined
        CFI R6 SameValue
        CFI R7 SameValue
        CFI V0 SameValue
        CFI V1 SameValue
        CFI V2 SameValue
        CFI V3 SameValue
        CFI V4 SameValue
        CFI V5 SameValue
        CFI V6 SameValue
        CFI V7 SameValue
        CFI V8 SameValue
        CFI V9 SameValue
        CFI V10 SameValue
        CFI V11 SameValue
        CFI V12 SameValue
        CFI V13 SameValue
        CFI V14 SameValue
        CFI V15 SameValue
        CFI PSPH Undefined
        CFI PSPL Undefined
        CFI XSPH Undefined
        CFI XSPL Undefined
        CFI ?RET Concat
        CFI ?BRET_EXT Frame(CFA_SP, 3)
        CFI ?RET_HIGH Frame(CFA_SP, 2)
        CFI ?RET_LOW Frame(CFA_SP, 1)
        CFI EndCommon cfiCommon0
        
UART_Init           SYMBOL "UART_Init"
HalUARTWrite        SYMBOL "HalUARTWrite"
afRegister          SYMBOL "afRegister"
osal_msg_receive    SYMBOL "osal_msg_receive"
osal_msg_deallocate SYMBOL "osal_msg_deallocate"
AF_DataRequest      SYMBOL "AF_DataRequest"
??AF_DataRequest?relay SYMBOL "?relay", AF_DataRequest
??HalUARTWrite?relay SYMBOL "?relay", HalUARTWrite
??UART_Init?relay   SYMBOL "?relay", UART_Init
??afRegister?relay  SYMBOL "?relay", afRegister
??osal_msg_deallocate?relay SYMBOL "?relay", osal_msg_deallocate
??osal_msg_receive?relay SYMBOL "?relay", osal_msg_receive
SampleApp_Init      SYMBOL "SampleApp_Init"
??SampleApp_Init?relay SYMBOL "?relay", SampleApp_Init
SampleApp_MessageMSGCB SYMBOL "SampleApp_MessageMSGCB"
??SampleApp_MessageMSGCB?relay SYMBOL "?relay", SampleApp_MessageMSGCB
SampleApp_ProcessEvent SYMBOL "SampleApp_ProcessEvent"
??SampleApp_ProcessEvent?relay SYMBOL "?relay", SampleApp_ProcessEvent

        EXTERN UART_Init
        FUNCTION UART_Init,0202H
        ARGFRAME ISTACK, 0, STACK
        ARGFRAME PSTACK, 0, STACK
        ARGFRAME XSTACK, 9, STACK
        ARGFRAME IOVERLAY, 0, STATIC
        ARGFRAME DOVERLAY, 0, STATIC
        EXTERN HalUARTWrite
        FUNCTION HalUARTWrite,0202H
        ARGFRAME ISTACK, 0, STACK
        ARGFRAME PSTACK, 0, STACK
        ARGFRAME XSTACK, 12, STACK
        ARGFRAME IOVERLAY, 0, STATIC
        ARGFRAME DOVERLAY, 0, STATIC
        EXTERN afRegister
        FUNCTION afRegister,0202H
        ARGFRAME ISTACK, 0, STACK
        ARGFRAME PSTACK, 0, STACK
        ARGFRAME XSTACK, 9, STACK
        ARGFRAME IOVERLAY, 0, STATIC
        ARGFRAME DOVERLAY, 0, STATIC
        EXTERN osal_msg_receive
        FUNCTION osal_msg_receive,0202H
        ARGFRAME ISTACK, 0, STACK
        ARGFRAME PSTACK, 0, STACK
        ARGFRAME XSTACK, 12, STACK
        ARGFRAME IOVERLAY, 0, STATIC
        ARGFRAME DOVERLAY, 0, STATIC
        EXTERN osal_msg_deallocate
        FUNCTION osal_msg_deallocate,0202H
        ARGFRAME ISTACK, 0, STACK
        ARGFRAME PSTACK, 0, STACK
        ARGFRAME XSTACK, 12, STACK
        ARGFRAME IOVERLAY, 0, STATIC
        ARGFRAME DOVERLAY, 0, STATIC
        EXTERN AF_DataRequest
        FUNCTION AF_DataRequest,0202H
        ARGFRAME ISTACK, 0, STACK
        ARGFRAME PSTACK, 0, STACK
        ARGFRAME XSTACK, 21, STACK
        ARGFRAME IOVERLAY, 0, STATIC
        ARGFRAME DOVERLAY, 0, STATIC
        EXTERN ??AF_DataRequest?relay
        FUNCTION ??AF_DataRequest?relay,00H
        EXTERN ??HalUARTWrite?relay
        FUNCTION ??HalUARTWrite?relay,00H
        EXTERN ??UART_Init?relay
        FUNCTION ??UART_Init?relay,00H
        EXTERN ??afRegister?relay
        FUNCTION ??afRegister?relay,00H
        EXTERN ??osal_msg_deallocate?relay
        FUNCTION ??osal_msg_deallocate?relay,00H
        EXTERN ??osal_msg_receive?relay
        FUNCTION ??osal_msg_receive?relay,00H
        EXTERN uartBuf
        EXTERN uartLen
        EXTERN zgDeviceLogicalType

// E:\project\ZStack-CC2530-2.5.1a\Projects\zstack\Samples\12-1-Ļ‚’’lLED”ŇĽĮ≤‚ ‘\Source\SampleApp.c
//    1 #include "OSAL.h"
//    2 #include "ZGlobals.h"
//    3 #include "AF.h"
//    4 #include "aps_groups.h"
//    5 #include "ZDApp.h"
//    6 
//    7 #include "SampleApp.h"
//    8 #include "SampleAppHw.h"
//    9 
//   10 #include "OnBoard.h"
//   11 
//   12 
//   13 /* HAL */
//   14 #include "hal_lcd.h"
//   15 #include "hal_led.h"
//   16 #include "hal_key.h"
//   17 
//   18 //#include "MT_UART.h"
//   19 #include "string.h"
//   20 
//   21 #include "my_uart.h"
//   22 #include "hal_uart.h"
//   23 #include "stdio.h"
//   24 

        RSEG XDATA_ROM_C:CONST:REORDER:NOROOT(0)
        DATA32
//   25 const cId_t SampleApp_ClusterList[SAMPLEAPP_MAX_CLUSTERS] =
SampleApp_ClusterList:
        DATA16
        DW 1
        DW 2
//   26 {
//   27   SAMPLEAPP_PERIODIC_CLUSTERID,
//   28   SAMPLEAPP_FLASH_CLUSTERID
//   29 };
//   30 

        RSEG XDATA_ROM_C:CONST:REORDER:NOROOT(0)
        DATA8
//   31 const SimpleDescriptionFormat_t SampleApp_SimpleDesc =
SampleApp_SimpleDesc:
        DB 20
        DATA16
        DW 3848
        DW 1
        DATA8
        DB 0
        DB 2
        DATA16
        DW SampleApp_ClusterList
        DATA8
        DB 2
        DATA16
        DW SampleApp_ClusterList
//   32 {
//   33   SAMPLEAPP_ENDPOINT,              //  int Endpoint;
//   34   SAMPLEAPP_PROFID,                //  uint16 AppProfId[2];
//   35   SAMPLEAPP_DEVICEID,              //  uint16 AppDeviceId[2];
//   36   SAMPLEAPP_DEVICE_VERSION,        //  int   AppDevVer:4;
//   37   SAMPLEAPP_FLAGS,                 //  int   AppFlags:4;
//   38   SAMPLEAPP_MAX_CLUSTERS,          //  uint8  AppNumInClusters;
//   39   (cId_t *)SampleApp_ClusterList,  //  uint8 *pAppInClusterList;
//   40   SAMPLEAPP_MAX_CLUSTERS,          //  uint8  AppNumInClusters;
//   41   (cId_t *)SampleApp_ClusterList   //  uint8 *pAppInClusterList;
//   42 };
//   43 

        RSEG XDATA_Z:XDATA:NOROOT(0)
        DATA8
//   44 endPointDesc_t SampleApp_epDesc;
SampleApp_epDesc:
        DS 6
        REQUIRE __INIT_XDATA_Z
//   45 

        RSEG XDATA_Z:XDATA:NOROOT(0)
        DATA8
//   46 uint8 SampleApp_TaskID;   // Task ID for internal task/event processing
SampleApp_TaskID:
        DS 1
        REQUIRE __INIT_XDATA_Z
//   47                           // This variable will be received when
//   48                           // SampleApp_Init() is called.

        RSEG XDATA_Z:XDATA:NOROOT(0)
        DATA8
//   49 devStates_t SampleApp_NwkState;
SampleApp_NwkState:
        DS 1
        REQUIRE __INIT_XDATA_Z
//   50 

        RSEG XDATA_Z:XDATA:NOROOT(0)
        DATA8
//   51 uint8 SampleApp_TransID;  // This is the unique message ID (counter)
SampleApp_TransID:
        DS 1
        REQUIRE __INIT_XDATA_Z
//   52 

        RSEG XDATA_Z:XDATA:NOROOT(0)
        DATA8
//   53 afAddrType_t SampleApp_Periodic_DstAddr;
SampleApp_Periodic_DstAddr:
        DS 12
        REQUIRE __INIT_XDATA_Z

        RSEG XDATA_Z:XDATA:NOROOT(0)
        DATA8
//   54 afAddrType_t SampleApp_Flash_DstAddr;
SampleApp_Flash_DstAddr:
        DS 12
        REQUIRE __INIT_XDATA_Z

        RSEG XDATA_Z:XDATA:NOROOT(0)
        DATA8
//   55 aps_Group_t SampleApp_Group;
SampleApp_Group:
        DS 18
        REQUIRE __INIT_XDATA_Z
//   56 

        RSEG XDATA_Z:XDATA:NOROOT(0)
        DATA8
//   57 uint8 SampleAppPeriodicCounter = 0;
SampleAppPeriodicCounter:
        DS 1
        REQUIRE __INIT_XDATA_Z

        RSEG XDATA_Z:XDATA:NOROOT(0)
        DATA8
//   58 uint8 SampleAppFlashCounter = 0;
SampleAppFlashCounter:
        DS 1
        REQUIRE __INIT_XDATA_Z
//   59 
//   60 extern uint8 uartBuf[32];
//   61 extern uint8 uartLen;
//   62 
//   63 /*********************************************************************
//   64  * LOCAL FUNCTIONS
//   65  */
//   66 void SampleApp_MessageMSGCB( afIncomingMSGPacket_t *pckt );
//   67 
//   68 

        RSEG BANKED_CODE:CODE:NOROOT(0)
//   69 void SampleApp_Init( uint8 task_id )
SampleApp_Init:
        CFI Block cfiBlock0 Using cfiCommon0
        CFI Function SampleApp_Init
        CODE
//   70 {
        FUNCALL SampleApp_Init, UART_Init
        LOCFRAME ISTACK, 0, STACK
        LOCFRAME PSTACK, 0, STACK
        LOCFRAME XSTACK, 9, STACK
        LOCFRAME IOVERLAY, 0, STATIC
        LOCFRAME DOVERLAY, 0, STATIC
        ARGFRAME ISTACK, 0, STACK
        ARGFRAME PSTACK, 0, STACK
        ARGFRAME XSTACK, 9, STACK
        ARGFRAME IOVERLAY, 0, STATIC
        ARGFRAME DOVERLAY, 0, STATIC
        FUNCALL SampleApp_Init, HalUARTWrite
        LOCFRAME ISTACK, 0, STACK
        LOCFRAME PSTACK, 0, STACK
        LOCFRAME XSTACK, 9, STACK
        LOCFRAME IOVERLAY, 0, STATIC
        LOCFRAME DOVERLAY, 0, STATIC
        ARGFRAME ISTACK, 0, STACK
        ARGFRAME PSTACK, 0, STACK
        ARGFRAME XSTACK, 9, STACK
        ARGFRAME IOVERLAY, 0, STATIC
        ARGFRAME DOVERLAY, 0, STATIC
        FUNCALL SampleApp_Init, afRegister
        LOCFRAME ISTACK, 0, STACK
        LOCFRAME PSTACK, 0, STACK
        LOCFRAME XSTACK, 9, STACK
        LOCFRAME IOVERLAY, 0, STATIC
        LOCFRAME DOVERLAY, 0, STATIC
        ARGFRAME ISTACK, 0, STACK
        ARGFRAME PSTACK, 0, STACK
        ARGFRAME XSTACK, 9, STACK
        ARGFRAME IOVERLAY, 0, STATIC
        ARGFRAME DOVERLAY, 0, STATIC
        MOV     A,#-0x9
        LCALL   ?BANKED_ENTER_XDATA
        CFI DPH0 load(1, XDATA, add(CFA_XSP16, literal(-1)))
        CFI DPL0 load(1, XDATA, add(CFA_XSP16, literal(-2)))
        CFI ?BRET_EXT load(1, XDATA, add(CFA_XSP16, literal(-3)))
        CFI ?RET_HIGH load(1, XDATA, add(CFA_XSP16, literal(-4)))
        CFI ?RET_LOW load(1, XDATA, add(CFA_XSP16, literal(-5)))
        CFI R7 load(1, XDATA, add(CFA_XSP16, literal(-6)))
        CFI V0 load(1, XDATA, add(CFA_XSP16, literal(-7)))
        CFI VB load(1, XDATA, add(CFA_XSP16, literal(-8)))
        CFI R6 load(1, XDATA, add(CFA_XSP16, literal(-9)))
        CFI CFA_SP SP+0
        CFI CFA_XSP16 add(XSP16, 9)
        ; Saved register size: 9
        ; Auto size: 0
        MOV     A,R1
//   71   SampleApp_TaskID = task_id;
        MOV     DPTR,#SampleApp_TaskID
        MOVX    @DPTR,A
//   72   zgDeviceLogicalType = ZG_DEVICETYPE_ENDDEVICE;
        MOV     DPTR,#zgDeviceLogicalType
        MOV     A,#0x2
        MOVX    @DPTR,A
//   73   SampleApp_NwkState = DEV_INIT;
        MOV     DPTR,#SampleApp_NwkState
        DEC     A
        MOVX    @DPTR,A
//   74   SampleApp_TransID = 0;
        MOV     DPTR,#SampleApp_TransID
        CLR     A
        MOVX    @DPTR,A
//   75   
//   76   //MT_UartInit();
//   77   UART_Init();
        ; Setup parameters for call to function UART_Init
        LCALL   ??UART_Init?relay
//   78   HalUARTWrite(0,"uart0 is ok\r\n",strlen("uart0 is ok\r\n"));
        ; Setup parameters for call to function HalUARTWrite
        MOV     R4,#0xd
        MOV     R5,#0x0
        MOV     R2,#`?<Constant "uart0 is ok\\r\\n">` & 0xff
        MOV     R3,#(`?<Constant "uart0 is ok\\r\\n">` >> 8) & 0xff
        MOV     R1,#0x0
        LCALL   ??HalUARTWrite?relay
//   79 
//   80 
//   81   // Setup for the periodic message's destination address
//   82   // Broadcast to everyone
//   83   SampleApp_Periodic_DstAddr.addrMode = (afAddrMode_t)AddrBroadcast;
        MOV     DPTR,#SampleApp_Periodic_DstAddr + 8
        MOV     A,#0xf
        MOVX    @DPTR,A
//   84   SampleApp_Periodic_DstAddr.endPoint = SAMPLEAPP_ENDPOINT;
        INC     DPTR
        MOV     A,#0x14
        MOVX    @DPTR,A
//   85   SampleApp_Periodic_DstAddr.addr.shortAddr = 0xFFFF;
        MOV     DPTR,#SampleApp_Periodic_DstAddr
        MOV     A,#-0x1
        MOVX    @DPTR,A
        INC     DPTR
        MOVX    @DPTR,A
//   86 
//   87   
//   88   // Setup for the flash command's destination address - Group 1
//   89   SampleApp_Flash_DstAddr.addrMode = (afAddrMode_t)Addr16Bit;
        MOV     DPTR,#SampleApp_Flash_DstAddr + 8
        MOV     A,#0x2
        MOVX    @DPTR,A
//   90   SampleApp_Flash_DstAddr.endPoint = SAMPLEAPP_ENDPOINT;
        INC     DPTR
        MOV     A,#0x14
        MOVX    @DPTR,A
//   91   SampleApp_Flash_DstAddr.addr.shortAddr = 0x0000;
        MOV     DPTR,#SampleApp_Flash_DstAddr
        CLR     A
        MOVX    @DPTR,A
        INC     DPTR
        MOVX    @DPTR,A
//   92 
//   93   // Fill out the endpoint description.
//   94   SampleApp_epDesc.endPoint = SAMPLEAPP_ENDPOINT;
        MOV     DPTR,#SampleApp_epDesc
        MOV     A,#0x14
        MOVX    @DPTR,A
//   95   SampleApp_epDesc.task_id = &SampleApp_TaskID;
        INC     DPTR
        MOV     A,#SampleApp_TaskID & 0xff
        MOVX    @DPTR,A
        INC     DPTR
        MOV     A,#(SampleApp_TaskID >> 8) & 0xff
        MOVX    @DPTR,A
//   96   SampleApp_epDesc.simpleDesc
//   97             = (SimpleDescriptionFormat_t *)&SampleApp_SimpleDesc;
        INC     DPTR
        MOV     A,#SampleApp_SimpleDesc & 0xff
        MOVX    @DPTR,A
        INC     DPTR
        MOV     A,#(SampleApp_SimpleDesc >> 8) & 0xff
        MOVX    @DPTR,A
//   98   SampleApp_epDesc.latencyReq = noLatencyReqs;
        INC     DPTR
        CLR     A
        MOVX    @DPTR,A
//   99 
//  100   // Register the endpoint description with the AF
//  101   afRegister( &SampleApp_epDesc );
        ; Setup parameters for call to function afRegister
        MOV     R2,#SampleApp_epDesc & 0xff
        MOV     R3,#(SampleApp_epDesc >> 8) & 0xff
        LCALL   ??afRegister?relay
//  102 
//  103 }
        MOV     R7,#0x1
        LJMP    ?BANKED_LEAVE_XDATA
        CFI EndBlock cfiBlock0
//  104 
//  105 

        RSEG BANKED_CODE:CODE:NOROOT(0)
//  106 uint16 SampleApp_ProcessEvent( uint8 task_id, uint16 events )
SampleApp_ProcessEvent:
        CFI Block cfiBlock1 Using cfiCommon0
        CFI Function SampleApp_ProcessEvent
        CODE
//  107 {
        FUNCALL SampleApp_ProcessEvent, osal_msg_receive
        LOCFRAME ISTACK, 0, STACK
        LOCFRAME PSTACK, 0, STACK
        LOCFRAME XSTACK, 12, STACK
        LOCFRAME IOVERLAY, 0, STATIC
        LOCFRAME DOVERLAY, 0, STATIC
        ARGFRAME ISTACK, 0, STACK
        ARGFRAME PSTACK, 0, STACK
        ARGFRAME XSTACK, 12, STACK
        ARGFRAME IOVERLAY, 0, STATIC
        ARGFRAME DOVERLAY, 0, STATIC
        FUNCALL SampleApp_ProcessEvent, osal_msg_deallocate
        LOCFRAME ISTACK, 0, STACK
        LOCFRAME PSTACK, 0, STACK
        LOCFRAME XSTACK, 12, STACK
        LOCFRAME IOVERLAY, 0, STATIC
        LOCFRAME DOVERLAY, 0, STATIC
        ARGFRAME ISTACK, 0, STACK
        ARGFRAME PSTACK, 0, STACK
        ARGFRAME XSTACK, 12, STACK
        ARGFRAME IOVERLAY, 0, STATIC
        ARGFRAME DOVERLAY, 0, STATIC
        FUNCALL SampleApp_ProcessEvent, osal_msg_receive
        LOCFRAME ISTACK, 0, STACK
        LOCFRAME PSTACK, 0, STACK
        LOCFRAME XSTACK, 12, STACK
        LOCFRAME IOVERLAY, 0, STATIC
        LOCFRAME DOVERLAY, 0, STATIC
        ARGFRAME ISTACK, 0, STACK
        ARGFRAME PSTACK, 0, STACK
        ARGFRAME XSTACK, 12, STACK
        ARGFRAME IOVERLAY, 0, STATIC
        ARGFRAME DOVERLAY, 0, STATIC
        FUNCALL SampleApp_ProcessEvent, SampleApp_MessageMSGCB
        LOCFRAME ISTACK, 0, STACK
        LOCFRAME PSTACK, 0, STACK
        LOCFRAME XSTACK, 12, STACK
        LOCFRAME IOVERLAY, 0, STATIC
        LOCFRAME DOVERLAY, 0, STATIC
        ARGFRAME ISTACK, 0, STACK
        ARGFRAME PSTACK, 0, STACK
        ARGFRAME XSTACK, 12, STACK
        ARGFRAME IOVERLAY, 0, STATIC
        ARGFRAME DOVERLAY, 0, STATIC
        FUNCALL SampleApp_ProcessEvent, AF_DataRequest
        LOCFRAME ISTACK, 0, STACK
        LOCFRAME PSTACK, 0, STACK
        LOCFRAME XSTACK, 21, STACK
        LOCFRAME IOVERLAY, 0, STATIC
        LOCFRAME DOVERLAY, 0, STATIC
        ARGFRAME ISTACK, 0, STACK
        ARGFRAME PSTACK, 0, STACK
        ARGFRAME XSTACK, 21, STACK
        ARGFRAME IOVERLAY, 0, STATIC
        ARGFRAME DOVERLAY, 0, STATIC
        FUNCALL SampleApp_ProcessEvent, HalUARTWrite
        LOCFRAME ISTACK, 0, STACK
        LOCFRAME PSTACK, 0, STACK
        LOCFRAME XSTACK, 12, STACK
        LOCFRAME IOVERLAY, 0, STATIC
        LOCFRAME DOVERLAY, 0, STATIC
        ARGFRAME ISTACK, 0, STACK
        ARGFRAME PSTACK, 0, STACK
        ARGFRAME XSTACK, 12, STACK
        ARGFRAME IOVERLAY, 0, STATIC
        ARGFRAME DOVERLAY, 0, STATIC
        FUNCALL SampleApp_ProcessEvent, HalUARTWrite
        LOCFRAME ISTACK, 0, STACK
        LOCFRAME PSTACK, 0, STACK
        LOCFRAME XSTACK, 12, STACK
        LOCFRAME IOVERLAY, 0, STATIC
        LOCFRAME DOVERLAY, 0, STATIC
        ARGFRAME ISTACK, 0, STACK
        ARGFRAME PSTACK, 0, STACK
        ARGFRAME XSTACK, 12, STACK
        ARGFRAME IOVERLAY, 0, STATIC
        ARGFRAME DOVERLAY, 0, STATIC
        MOV     A,#-0xc
        LCALL   ?BANKED_ENTER_XDATA
        CFI DPH0 load(1, XDATA, add(CFA_XSP16, literal(-1)))
        CFI DPL0 load(1, XDATA, add(CFA_XSP16, literal(-2)))
        CFI ?BRET_EXT load(1, XDATA, add(CFA_XSP16, literal(-3)))
        CFI ?RET_HIGH load(1, XDATA, add(CFA_XSP16, literal(-4)))
        CFI ?RET_LOW load(1, XDATA, add(CFA_XSP16, literal(-5)))
        CFI R7 load(1, XDATA, add(CFA_XSP16, literal(-6)))
        CFI V3 load(1, XDATA, add(CFA_XSP16, literal(-7)))
        CFI V2 load(1, XDATA, add(CFA_XSP16, literal(-8)))
        CFI V1 load(1, XDATA, add(CFA_XSP16, literal(-9)))
        CFI V0 load(1, XDATA, add(CFA_XSP16, literal(-10)))
        CFI VB load(1, XDATA, add(CFA_XSP16, literal(-11)))
        CFI R6 load(1, XDATA, add(CFA_XSP16, literal(-12)))
        CFI CFA_SP SP+0
        CFI CFA_XSP16 add(XSP16, 12)
        ; Saved register size: 12
        ; Auto size: 0
        MOV     ?V0 + 0,R2
        MOV     ?V0 + 1,R3
//  108   afIncomingMSGPacket_t *MSGpkt;
//  109   (void)task_id;  // Intentionally unreferenced parameter
//  110 
//  111   if ( events & SYS_EVENT_MSG )
        MOV     A,R3
        ANL     A,#0x80
        JZ      ??SampleApp_ProcessEvent_0
//  112   {
//  113     MSGpkt = (afIncomingMSGPacket_t *)osal_msg_receive( SampleApp_TaskID );
        ; Setup parameters for call to function osal_msg_receive
        SJMP    ??SampleApp_ProcessEvent_1
//  114     while ( MSGpkt )
//  115     {
//  116       switch ( MSGpkt->hdr.event )
//  117       {
//  118         // Received when a messages is received (OTA) for this endpoint
//  119         case AF_INCOMING_MSG_CMD:
//  120           SampleApp_MessageMSGCB( MSGpkt );
//  121           break;
//  122 
//  123         // Received whenever the device changes state in the network
//  124         case ZDO_STATE_CHANGE:
//  125           SampleApp_NwkState = (devStates_t)(MSGpkt->hdr.status);
??SampleApp_ProcessEvent_2:
        INC     DPTR
        MOVX    A,@DPTR
        MOV     DPTR,#SampleApp_NwkState
        MOVX    @DPTR,A
//  126           break;
//  127 
//  128         default:
//  129           break;
//  130       }
//  131 
//  132       // Release the memory
//  133       osal_msg_deallocate( (uint8 *)MSGpkt );
??SampleApp_ProcessEvent_3:
        ; Setup parameters for call to function osal_msg_deallocate
        MOV     A,R6
        MOV     R2,A
        MOV     A,R7
        MOV     R3,A
        LCALL   ??osal_msg_deallocate?relay
//  134 
//  135       // Next - if one is available
//  136       MSGpkt = (afIncomingMSGPacket_t *)osal_msg_receive( SampleApp_TaskID );
        ; Setup parameters for call to function osal_msg_receive
??SampleApp_ProcessEvent_1:
        MOV     DPTR,#SampleApp_TaskID
        MOVX    A,@DPTR
        MOV     R1,A
        LCALL   ??osal_msg_receive?relay
        MOV     ?V0 + 2,R2
        MOV     ?V0 + 3,R3
        MOV     R6,?V0 + 2
        MOV     R7,?V0 + 3
        MOV     A,R6
        ORL     A,R7
        JZ      ??SampleApp_ProcessEvent_4
        MOV     DPL,R6
        MOV     DPH,R7
        MOVX    A,@DPTR
        ADD     A,#-0x1a
        JZ      ??SampleApp_ProcessEvent_5
        ADD     A,#0x49
        JZ      ??SampleApp_ProcessEvent_2
        SJMP    ??SampleApp_ProcessEvent_3
??SampleApp_ProcessEvent_5:
        ; Setup parameters for call to function SampleApp_MessageMSGCB
        MOV     A,R6
        MOV     R2,A
        MOV     A,R7
        MOV     R3,A
        LCALL   ??SampleApp_MessageMSGCB?relay
        SJMP    ??SampleApp_ProcessEvent_3
//  137     }
//  138 
//  139     // return unprocessed events
//  140     return (events ^ SYS_EVENT_MSG);
??SampleApp_ProcessEvent_4:
        MOV     R2,?V0 + 0
        MOV     A,?V0 + 1
        XRL     A,#0x80
        MOV     R3,A
        SJMP    ??SampleApp_ProcessEvent_6
//  141   }
//  142   
//  143  if(events & UART_RX_EVT)
??SampleApp_ProcessEvent_0:
        MOV     A,R2
        ANL     A,#0x10
        JZ      ??SampleApp_ProcessEvent_7
//  144 {
//  145     if(SampleApp_NwkState == DEV_END_DEVICE)
        MOV     DPTR,#SampleApp_NwkState
        MOVX    A,@DPTR
        XRL     A,#0x6
        JNZ     ??SampleApp_ProcessEvent_8
//  146     {
//  147         afStatus_t status;
//  148 
//  149         status = AF_DataRequest(&SampleApp_Flash_DstAddr,
//  150                                 &SampleApp_epDesc,
//  151                                 SAMPLEAPP_FLASH_CLUSTERID,
//  152                                 9,                // ĻŐ∂®9◊÷Ĺŕ
//  153                                 uartBuf,
//  154                                 &SampleApp_TransID,
//  155                                 AF_DISCV_ROUTE,
//  156                                 AF_DEFAULT_RADIUS);
//  157 
//  158         if(status == afStatus_SUCCESS)
        ; Setup parameters for call to function AF_DataRequest
        MOV     ?V0 + 2,#0x1e
        MOV     R0,#?V0 + 2
        LCALL   ?PUSH_XSTACK_I_ONE
        CFI CFA_XSP16 add(XSP16, 13)
        MOV     ?V0 + 2,#SampleApp_TransID & 0xff
        MOV     ?V0 + 3,#(SampleApp_TransID >> 8) & 0xff
        MOV     R0,#?V0 + 2
        LCALL   ?PUSH_XSTACK_I_TWO
        CFI CFA_XSP16 add(XSP16, 15)
        MOV     ?V0 + 2,#uartBuf & 0xff
        MOV     ?V0 + 3,#(uartBuf >> 8) & 0xff
        MOV     R0,#?V0 + 2
        LCALL   ?PUSH_XSTACK_I_TWO
        CFI CFA_XSP16 add(XSP16, 17)
        MOV     ?V0 + 2,#0x9
        MOV     ?V0 + 3,#0x0
        MOV     R0,#?V0 + 2
        LCALL   ?PUSH_XSTACK_I_TWO
        CFI CFA_XSP16 add(XSP16, 19)
        MOV     ?V0 + 2,#0x2
        MOV     R0,#?V0 + 2
        LCALL   ?PUSH_XSTACK_I_TWO
        CFI CFA_XSP16 add(XSP16, 21)
        MOV     R1,#0x20
        MOV     R4,#SampleApp_epDesc & 0xff
        MOV     R5,#(SampleApp_epDesc >> 8) & 0xff
        MOV     R2,#SampleApp_Flash_DstAddr & 0xff
        MOV     R3,#(SampleApp_Flash_DstAddr >> 8) & 0xff
        LCALL   ??AF_DataRequest?relay
        MOV     A,#0x9
        LCALL   ?DEALLOC_XSTACK8
        CFI CFA_XSP16 add(XSP16, 12)
        MOV     A,R1
        JNZ     ??SampleApp_ProcessEvent_9
//  159         {
//  160             HalUARTWrite(0, "send ok\r\n", 9);
        ; Setup parameters for call to function HalUARTWrite
        MOV     R4,#0x9
        MOV     R5,#0x0
        MOV     R2,#`?<Constant "send ok\\r\\n">` & 0xff
        MOV     R3,#(`?<Constant "send ok\\r\\n">` >> 8) & 0xff
        SJMP    ??SampleApp_ProcessEvent_10
//  161         }
//  162         else
//  163         {
//  164             HalUARTWrite(0, "send fail\r\n", 11);
??SampleApp_ProcessEvent_9:
        ; Setup parameters for call to function HalUARTWrite
        MOV     R4,#0xb
        MOV     R5,#0x0
        MOV     R2,#`?<Constant "send fail\\r\\n">` & 0xff
        MOV     R3,#(`?<Constant "send fail\\r\\n">` >> 8) & 0xff
??SampleApp_ProcessEvent_10:
        MOV     R1,#0x0
        LCALL   ??HalUARTWrite?relay
//  165         }
//  166     }
//  167 
//  168     uartLen = 0;   // ∑ĘňÕÕÍ≥…ļů«ŚŃ„
??SampleApp_ProcessEvent_8:
        MOV     DPTR,#uartLen
        CLR     A
        MOVX    @DPTR,A
//  169 
//  170     return (events ^ UART_RX_EVT);
        MOV     A,?V0 + 0
        XRL     A,#0x10
        MOV     R2,A
        MOV     R3,?V0 + 1
        SJMP    ??SampleApp_ProcessEvent_6
//  171 }
//  172   return 0;
??SampleApp_ProcessEvent_7:
        MOV     R2,#0x0
        MOV     R3,#0x0
??SampleApp_ProcessEvent_6:
        MOV     R7,#0x4
        LJMP    ?BANKED_LEAVE_XDATA
        CFI EndBlock cfiBlock1
//  173 }
//  174 
//  175 
//  176 // –řłńSampleApp_MessageMSGCB£ļĹŲ–£—ťŌ¬––8◊÷Ĺŕ£¨≤ĽŌř÷∆ľĮ»ļID£®»∑Ī£Ĺ” ’£©

        RSEG BANKED_CODE:CODE:NOROOT(0)
//  177 void SampleApp_MessageMSGCB(afIncomingMSGPacket_t *pkt)
SampleApp_MessageMSGCB:
        CFI Block cfiBlock2 Using cfiCommon0
        CFI Function SampleApp_MessageMSGCB
        CODE
//  178 {
        FUNCALL SampleApp_MessageMSGCB, HalUARTWrite
        LOCFRAME ISTACK, 0, STACK
        LOCFRAME PSTACK, 0, STACK
        LOCFRAME XSTACK, 10, STACK
        LOCFRAME IOVERLAY, 0, STATIC
        LOCFRAME DOVERLAY, 0, STATIC
        ARGFRAME ISTACK, 0, STACK
        ARGFRAME PSTACK, 0, STACK
        ARGFRAME XSTACK, 10, STACK
        ARGFRAME IOVERLAY, 0, STATIC
        ARGFRAME DOVERLAY, 0, STATIC
        FUNCALL SampleApp_MessageMSGCB, HalUARTWrite
        LOCFRAME ISTACK, 0, STACK
        LOCFRAME PSTACK, 0, STACK
        LOCFRAME XSTACK, 10, STACK
        LOCFRAME IOVERLAY, 0, STATIC
        LOCFRAME DOVERLAY, 0, STATIC
        ARGFRAME ISTACK, 0, STACK
        ARGFRAME PSTACK, 0, STACK
        ARGFRAME XSTACK, 10, STACK
        ARGFRAME IOVERLAY, 0, STATIC
        ARGFRAME DOVERLAY, 0, STATIC
        FUNCALL SampleApp_MessageMSGCB, HalUARTWrite
        LOCFRAME ISTACK, 0, STACK
        LOCFRAME PSTACK, 0, STACK
        LOCFRAME XSTACK, 10, STACK
        LOCFRAME IOVERLAY, 0, STATIC
        LOCFRAME DOVERLAY, 0, STATIC
        ARGFRAME ISTACK, 0, STACK
        ARGFRAME PSTACK, 0, STACK
        ARGFRAME XSTACK, 10, STACK
        ARGFRAME IOVERLAY, 0, STATIC
        ARGFRAME DOVERLAY, 0, STATIC
        FUNCALL SampleApp_MessageMSGCB, HalUARTWrite
        LOCFRAME ISTACK, 0, STACK
        LOCFRAME PSTACK, 0, STACK
        LOCFRAME XSTACK, 10, STACK
        LOCFRAME IOVERLAY, 0, STATIC
        LOCFRAME DOVERLAY, 0, STATIC
        ARGFRAME ISTACK, 0, STACK
        ARGFRAME PSTACK, 0, STACK
        ARGFRAME XSTACK, 10, STACK
        ARGFRAME IOVERLAY, 0, STATIC
        ARGFRAME DOVERLAY, 0, STATIC
        MOV     A,#-0xa
        LCALL   ?BANKED_ENTER_XDATA
        CFI DPH0 load(1, XDATA, add(CFA_XSP16, literal(-1)))
        CFI DPL0 load(1, XDATA, add(CFA_XSP16, literal(-2)))
        CFI ?BRET_EXT load(1, XDATA, add(CFA_XSP16, literal(-3)))
        CFI ?RET_HIGH load(1, XDATA, add(CFA_XSP16, literal(-4)))
        CFI ?RET_LOW load(1, XDATA, add(CFA_XSP16, literal(-5)))
        CFI R7 load(1, XDATA, add(CFA_XSP16, literal(-6)))
        CFI V1 load(1, XDATA, add(CFA_XSP16, literal(-7)))
        CFI V0 load(1, XDATA, add(CFA_XSP16, literal(-8)))
        CFI VB load(1, XDATA, add(CFA_XSP16, literal(-9)))
        CFI R6 load(1, XDATA, add(CFA_XSP16, literal(-10)))
        CFI CFA_SP SP+0
        CFI CFA_XSP16 add(XSP16, 10)
        ; Saved register size: 10
        ; Auto size: 0
        MOV     A,R2
        MOV     R0,A
        MOV     A,R3
        MOV     R1,A
//  179     uint8 *data = pkt->cmd.Data;
        MOV     A,R0
        ADD     A,#0x22
        MOV     DPL,A
        MOV     A,R1
        ADDC    A,#0x0
        MOV     DPH,A
        MOVX    A,@DPTR
        MOV     R2,A
        INC     DPTR
        MOVX    A,@DPTR
        MOV     R3,A
//  180     uint8 len = pkt->cmd.DataLength;
//  181 
//  182     // ĹŲī¶ņŪŌ¬––8◊÷Ĺŕ÷°£®–≠Ķų∆ų°ķ÷’∂ň£©
//  183     if (len == 8)
        MOV     A,R0
        ADD     A,#0x20
        MOV     DPL,A
        MOV     A,R1
        ADDC    A,#0x0
        MOV     DPH,A
        MOVX    A,@DPTR
        XRL     A,#0x8
        JNZ     ??SampleApp_MessageMSGCB_0
//  184     {
//  185         // 1. ÷°Õ∑÷°ő≤–£—ť
//  186         if (data[0] == 0xAA && data[8-1] == 0x55)
        MOV     DPL,R2
        MOV     DPH,R3
        MOVX    A,@DPTR
        XRL     A,#0xaa
        JNZ     ??SampleApp_MessageMSGCB_1
        INC     DPTR
        INC     DPTR
        INC     DPTR
        INC     DPTR
        INC     DPTR
        INC     DPTR
        INC     DPTR
        MOVX    A,@DPTR
        XRL     A,#0x55
        JNZ     ??SampleApp_MessageMSGCB_1
//  187         {
//  188             // 2. ļÕ–£—ť£®data[1]+data[2]+data[3]+data[4]+data[5] == data[6]£©
//  189             uint8 sum = 0;
        MOV     R0,#0x0
//  190             for(uint8 i = 1; i <= 5; i++)
        MOV     R1,#0x1
//  191             {
//  192                 sum += data[i];
??SampleApp_MessageMSGCB_2:
        MOV     ?V0 + 0,R1
        MOV     A,R2
        ADD     A,?V0 + 0
        MOV     DPL,A
        MOV     A,R3
        ADDC    A,#0x0
        MOV     DPH,A
        MOVX    A,@DPTR
        ADD     A,R0
        MOV     R0,A
//  193             }
        INC     R1
        MOV     A,R1
        CLR     C
        SUBB    A,#0x6
        JC      ??SampleApp_MessageMSGCB_2
//  194             
//  195             if (sum == data[6])
        MOV     DPL,R2
        MOV     DPH,R3
        INC     DPTR
        INC     DPTR
        INC     DPTR
        INC     DPTR
        INC     DPTR
        INC     DPTR
        MOVX    A,@DPTR
        XRL     A,R0
        MOV     R4,#0x8
        MOV     R5,#0x0
        JZ      ??SampleApp_MessageMSGCB_3
//  196             {
//  197                 // –£—ťÕ®Ļż£¨ š≥Ų żĺ›
//  198                 HalUARTWrite(0, data, 8);
        ; Setup parameters for call to function HalUARTWrite
//  199             }
//  200             else
//  201             {
//  202                 HalUARTWrite(0, "sum err\r\n", 8); // Ķų ‘£ļļÕ–£—ť ßį‹
        ; Setup parameters for call to function HalUARTWrite
        MOV     R2,#`?<Constant "sum err\\r\\n">` & 0xff
        MOV     R3,#(`?<Constant "sum err\\r\\n">` >> 8) & 0xff
        SJMP    ??SampleApp_MessageMSGCB_3
//  203             }
//  204         }
//  205         else
//  206         {
//  207             HalUARTWrite(0, "head/tail err\r\n", 13); // Ķų ‘£ļ÷°Õ∑÷°ő≤īŪőů
??SampleApp_MessageMSGCB_1:
        ; Setup parameters for call to function HalUARTWrite
        MOV     R4,#0xd
        MOV     R5,#0x0
        MOV     R2,#`?<Constant "head/tail err\\r\\n">` & 0xff
        MOV     R3,#(`?<Constant "head/tail err\\r\\n">` >> 8) & 0xff
        SJMP    ??SampleApp_MessageMSGCB_3
//  208         }
//  209     }
//  210     // Ķų ‘£ļīÚ”°‘≠ ľĹ” ’ żĺ›£¨»∑»Ō «∑Ů ’ĶĹĶę–£—ť ßį‹
//  211     else
//  212     {
//  213         HalUARTWrite(0, "len err: ", 8);
??SampleApp_MessageMSGCB_0:
        ; Setup parameters for call to function HalUARTWrite
        MOV     R4,#0x8
        MOV     R5,#0x0
        MOV     R2,#`?<Constant "len err: ">` & 0xff
        MOV     R3,#(`?<Constant "len err: ">` >> 8) & 0xff
??SampleApp_MessageMSGCB_3:
        MOV     R1,#0x0
        LCALL   ??HalUARTWrite?relay
//  214     }
//  215 }
        MOV     R7,#0x2
        LJMP    ?BANKED_LEAVE_XDATA
        CFI EndBlock cfiBlock2

        RSEG BANK_RELAYS:CODE:REORDER:NOROOT(0)
??SampleApp_Init?relay:
        LCALL   ?BDISPATCH
        DATA
        DC24    SampleApp_Init

        RSEG BANK_RELAYS:CODE:REORDER:NOROOT(0)
??SampleApp_ProcessEvent?relay:
        LCALL   ?BDISPATCH
        DATA
        DC24    SampleApp_ProcessEvent

        RSEG BANK_RELAYS:CODE:REORDER:NOROOT(0)
??SampleApp_MessageMSGCB?relay:
        LCALL   ?BDISPATCH
        DATA
        DC24    SampleApp_MessageMSGCB

        RSEG XDATA_ROM_C:CONST:REORDER:NOROOT(0)
        DATA8
`?<Constant "uart0 is ok\\r\\n">`:
        DB "uart0 is ok\015\012"

        RSEG XDATA_ROM_C:CONST:REORDER:NOROOT(0)
        DATA8
`?<Constant "send ok\\r\\n">`:
        DB "send ok\015\012"

        RSEG XDATA_ROM_C:CONST:REORDER:NOROOT(0)
        DATA8
`?<Constant "send fail\\r\\n">`:
        DB "send fail\015\012"

        RSEG XDATA_ROM_C:CONST:REORDER:NOROOT(0)
        DATA8
`?<Constant "sum err\\r\\n">`:
        DB "sum err\015\012"

        RSEG XDATA_ROM_C:CONST:REORDER:NOROOT(0)
        DATA8
`?<Constant "head/tail err\\r\\n">`:
        DB "head/tail err\015\012"

        RSEG XDATA_ROM_C:CONST:REORDER:NOROOT(0)
        DATA8
`?<Constant "len err: ">`:
        DB "len err: "

        END
//  216 
//  217 
//  218 
// 
// 463 bytes in segment BANKED_CODE
//  18 bytes in segment BANK_RELAYS
//  88 bytes in segment XDATA_ROM_C
//  53 bytes in segment XDATA_Z
// 
// 481 bytes of CODE  memory
//  88 bytes of CONST memory
//  53 bytes of XDATA memory
//
//Errors: none
//Warnings: none
